; Function Attrs: mustprogress nounwind uwtable
define hidden void @_ZN20bit_blaster_rewriterD2Ev(ptr nocapture noundef nonnull readonly align 8 dereferenceable(8) %this) unnamed_addr #4 align 2 personality ptr @__gxx_personality_v0 {
entry:
  %0 = load ptr, ptr %this, align 8
  %cmp.i = icmp eq ptr %0, null
  br i1 %cmp.i, label %invoke.cont, label %if.end.i

if.end.i:                                         ; preds = %entry
  %vtable.i = load ptr, ptr %0, align 8
  %1 = load ptr, ptr %vtable.i, align 8
  tail call void %1(ptr noundef nonnull align 8 dereferenceable(856) %0) #19
  invoke void @_ZN6memory10deallocateEPv(ptr noundef nonnull %0)
          to label %invoke.cont unwind label %terminate.lpad

invoke.cont:                                      ; preds = %entry, %if.end.i
  ret void

terminate.lpad:                                   ; preds = %if.end.i
  %2 = landingpad { ptr, i32 }
          catch ptr null
  %3 = extractvalue { ptr, i32 } %2, 0
  tail call void @__clang_call_terminate(ptr %3) #20
  unreachable
}